; Function Attrs: mustprogress uwtable
define void @_ZNK8QuantLib12VarianceSwap12setupExpiredEv(ptr noundef nonnull align 8 dereferenceable(152) %this) unnamed_addr #7 align 2 personality ptr @__gxx_personality_v0 {
entry:
  %ref.tmp.i = alloca %"class.QuantLib::Date", align 8
  %NPV_.i = getelementptr inbounds nuw i8, ptr %this, i64 16
  tail call void @llvm.memset.p0.i64(ptr noundef nonnull align 8 dereferenceable(16) %NPV_.i, i8 0, i64 16, i1 false)
  call void @llvm.lifetime.start.p0(i64 8, ptr nonnull %ref.tmp.i) #25
  call void @_ZN8QuantLib4DateC1Ev(ptr noundef nonnull align 8 dereferenceable(8) %ref.tmp.i)
  %valuationDate_.i = getelementptr inbounds nuw i8, ptr %this, i64 32
  %0 = load i64, ptr %ref.tmp.i, align 8, !tbaa !30
  store i64 %0, ptr %valuationDate_.i, align 8, !tbaa !30
  call void @llvm.lifetime.end.p0(i64 8, ptr nonnull %ref.tmp.i) #25
  %additionalResults_.i = getelementptr inbounds nuw i8, ptr %this, i64 40
  %_M_parent.i.i.i.i.i = getelementptr inbounds i8, ptr %this, i64 56
  %1 = load ptr, ptr %_M_parent.i.i.i.i.i, align 8, !tbaa !13
  invoke void @_ZNSt8_Rb_treeINSt7__cxx1112basic_stringIcSt11char_traitsIcESaIcEEESt4pairIKS5_N5boost3anyEESt10_Select1stISA_ESt4lessIS5_ESaISA_EE8_M_eraseEPSt13_Rb_tree_nodeISA_E(ptr noundef nonnull align 8 dereferenceable(48) %additionalResults_.i, ptr noundef %1)
          to label %_ZNK8QuantLib10Instrument12setupExpiredEv.exit unwind label %terminate.lpad.i.i.i

terminate.lpad.i.i.i:                             ; preds = %entry
  %2 = landingpad { ptr, i32 }
          catch ptr null
  %3 = extractvalue { ptr, i32 } %2, 0
  call void @__clang_call_terminate(ptr %3) #26
  unreachable

_ZNK8QuantLib10Instrument12setupExpiredEv.exit:   ; preds = %entry
  %add.ptr.i.i.i = getelementptr inbounds i8, ptr %this, i64 48
  store ptr null, ptr %_M_parent.i.i.i.i.i, align 8, !tbaa !13
  %_M_left.i.i.i.i = getelementptr inbounds i8, ptr %this, i64 64
  store ptr %add.ptr.i.i.i, ptr %_M_left.i.i.i.i, align 8, !tbaa !14
  %_M_right.i.i.i.i = getelementptr inbounds i8, ptr %this, i64 72
  store ptr %add.ptr.i.i.i, ptr %_M_right.i.i.i.i, align 8, !tbaa !15
  %_M_node_count.i.i.i.i = getelementptr inbounds i8, ptr %this, i64 80
  store i64 0, ptr %_M_node_count.i.i.i.i, align 8, !tbaa !16
  %variance_ = getelementptr inbounds nuw i8, ptr %this, i64 144
  store double 0x47EFFFFFE0000000, ptr %variance_, align 8, !tbaa !58
  ret void
}